; ModuleID = 'source-C-CXX/6/742.c'
source_filename = "source-C-CXX/6/742.c"
target datalayout = "e-m:e-p270:32:32-p271:32:32-p272:64:64-i64:64-f80:128-n8:16:32:64-S128"
target triple = "x86_64-pc-linux-gnu"

@.str = private unnamed_addr constant [7 x i8] c"%s%s%s\00", align 1
@.str.2 = private unnamed_addr constant [3 x i8] c"%s\00", align 1

; Function Attrs: nofree nounwind sspstrong uwtable
define dso_local i32 @main() local_unnamed_addr #0 {
  %1 = alloca [257 x i8], align 16
  %2 = alloca [257 x i8], align 16
  %3 = alloca [257 x i8], align 16
  %4 = getelementptr inbounds [257 x i8], [257 x i8]* %1, i64 0, i64 0
  call void @llvm.lifetime.start.p0i8(i64 257, i8* nonnull %4) #5
  %5 = getelementptr inbounds [257 x i8], [257 x i8]* %2, i64 0, i64 0
  call void @llvm.lifetime.start.p0i8(i64 257, i8* nonnull %5) #5
  %6 = getelementptr inbounds [257 x i8], [257 x i8]* %3, i64 0, i64 0
  call void @llvm.lifetime.start.p0i8(i64 257, i8* nonnull %6) #5
  %7 = call i32 (i8*, ...) @__isoc99_scanf(i8* getelementptr inbounds ([7 x i8], [7 x i8]* @.str, i64 0, i64 0), i8* nonnull %4, i8* nonnull %5, i8* nonnull %6)
  %8 = call i64 @strlen(i8* noundef nonnull %4) #6
  %9 = trunc i64 %8 to i32
  %10 = call i64 @strlen(i8* noundef nonnull %5) #6
  %11 = trunc i64 %10 to i32
  %12 = icmp sgt i32 %9, 0
  br i1 %12, label %13, label %77

13:                                               ; preds = %0
  %14 = icmp sgt i32 %11, 0
  br i1 %14, label %15, label %43

15:                                               ; preds = %13
  %16 = shl i64 %8, 32
  %17 = ashr exact i64 %16, 32
  %18 = and i64 %8, 4294967295
  %19 = and i64 %10, 4294967295
  br label %20

20:                                               ; preds = %15, %36
  %21 = phi i64 [ 0, %15 ], [ %37, %36 ]
  %22 = phi i1 [ true, %15 ], [ %38, %36 ]
  %23 = phi i32 [ undef, %15 ], [ %34, %36 ]
  %24 = add i32 %23, %11
  br label %25

25:                                               ; preds = %20, %40
  %26 = phi i64 [ 0, %20 ], [ %41, %40 ]
  %27 = getelementptr inbounds [257 x i8], [257 x i8]* %2, i64 0, i64 %26
  %28 = load i8, i8* %27, align 1, !tbaa !5
  %29 = add nuw nsw i64 %26, %21
  %30 = getelementptr inbounds [257 x i8], [257 x i8]* %1, i64 0, i64 %29
  %31 = load i8, i8* %30, align 1, !tbaa !5
  %32 = icmp eq i8 %28, %31
  br i1 %32, label %40, label %33

33:                                               ; preds = %40, %25
  %34 = phi i32 [ 0, %25 ], [ %24, %40 ]
  %35 = icmp eq i32 %34, %11
  br i1 %35, label %45, label %36

36:                                               ; preds = %33
  %37 = add nuw nsw i64 %21, 1
  %38 = icmp slt i64 %37, %17
  %39 = icmp eq i64 %37, %18
  br i1 %39, label %77, label %20, !llvm.loop !8

40:                                               ; preds = %25
  %41 = add nuw nsw i64 %26, 1
  %42 = icmp eq i64 %41, %19
  br i1 %42, label %33, label %25, !llvm.loop !10

43:                                               ; preds = %13
  %44 = icmp eq i32 %9, 1
  br i1 %44, label %77, label %49, !llvm.loop !8

45:                                               ; preds = %33
  %46 = trunc i64 %21 to i32
  br i1 %22, label %47, label %77

47:                                               ; preds = %45
  %48 = icmp eq i32 %46, 0
  br i1 %48, label %60, label %49

49:                                               ; preds = %43, %47
  %50 = phi i32 [ %46, %47 ], [ 1, %43 ]
  %51 = zext i32 %50 to i64
  br label %52

52:                                               ; preds = %49, %52
  %53 = phi i64 [ 0, %49 ], [ %58, %52 ]
  %54 = getelementptr inbounds [257 x i8], [257 x i8]* %1, i64 0, i64 %53
  %55 = load i8, i8* %54, align 1, !tbaa !5
  %56 = sext i8 %55 to i32
  %57 = call i32 @putchar(i32 %56)
  %58 = add nuw nsw i64 %53, 1
  %59 = icmp eq i64 %58, %51
  br i1 %59, label %60, label %52, !llvm.loop !11

60:                                               ; preds = %52, %47
  %61 = phi i32 [ 0, %47 ], [ %50, %52 ]
  %62 = call i32 (i8*, ...) @printf(i8* nonnull dereferenceable(1) getelementptr inbounds ([3 x i8], [3 x i8]* @.str.2, i64 0, i64 0), i8* nonnull %6)
  %63 = add i32 %61, %11
  %64 = icmp slt i32 %63, %9
  br i1 %64, label %65, label %79

65:                                               ; preds = %60
  %66 = sext i32 %63 to i64
  %67 = shl i64 %8, 32
  %68 = ashr exact i64 %67, 32
  br label %69

69:                                               ; preds = %65, %69
  %70 = phi i64 [ %66, %65 ], [ %75, %69 ]
  %71 = getelementptr inbounds [257 x i8], [257 x i8]* %1, i64 0, i64 %70
  %72 = load i8, i8* %71, align 1, !tbaa !5
  %73 = sext i8 %72 to i32
  %74 = call i32 @putchar(i32 %73)
  %75 = add nsw i64 %70, 1
  %76 = icmp slt i64 %75, %68
  br i1 %76, label %69, label %79, !llvm.loop !12

77:                                               ; preds = %36, %43, %45, %0
  %78 = call i32 (i8*, ...) @printf(i8* nonnull dereferenceable(1) getelementptr inbounds ([3 x i8], [3 x i8]* @.str.2, i64 0, i64 0), i8* nonnull %4)
  br label %79

79:                                               ; preds = %69, %60, %77
  call void @llvm.lifetime.end.p0i8(i64 257, i8* nonnull %6) #5
  call void @llvm.lifetime.end.p0i8(i64 257, i8* nonnull %5) #5
  call void @llvm.lifetime.end.p0i8(i64 257, i8* nonnull %4) #5
  ret i32 0
}

; Function Attrs: argmemonly mustprogress nofree nosync nounwind willreturn
declare void @llvm.lifetime.start.p0i8(i64 immarg, i8* nocapture) #1

; Function Attrs: nofree nounwind
declare noundef i32 @__isoc99_scanf(i8* nocapture noundef readonly, ...) local_unnamed_addr #2

; Function Attrs: argmemonly mustprogress nofree nounwind readonly willreturn
declare i64 @strlen(i8* nocapture) local_unnamed_addr #3

; Function Attrs: nofree nounwind
declare noundef i32 @printf(i8* nocapture noundef readonly, ...) local_unnamed_addr #2

; Function Attrs: argmemonly mustprogress nofree nosync nounwind willreturn
declare void @llvm.lifetime.end.p0i8(i64 immarg, i8* nocapture) #1

; Function Attrs: nofree nounwind
declare noundef i32 @putchar(i32 noundef) local_unnamed_addr #4


!llvm.module.flags = !{!0, !1, !2, !3}
!llvm.ident = !{!4}

!0 = !{i32 1, !"wchar_size", i32 4}
!1 = !{i32 7, !"PIC Level", i32 2}
!2 = !{i32 7, !"PIE Level", i32 2}
!3 = !{i32 7, !"uwtable", i32 1}
!4 = !{!"clang version 13.0.0"}
!5 = !{!6, !6, i64 0}
!6 = !{!"omnipotent char", !7, i64 0}
!7 = !{!"Simple C/C++ TBAA"}
!8 = distinct !{!8, !9}
!9 = !{!"llvm.loop.mustprogress"}
!10 = distinct !{!10, !9}
!11 = distinct !{!11, !9}
!12 = distinct !{!12, !9}
